; Function Attrs: nounwind uwtable
define ptr @l_Lean_Compiler_LCNF_CSE_getSubst(ptr noundef %0, ptr readnone captures(none) %1, ptr readnone captures(none) %2, ptr readnone captures(none) %3, ptr readnone captures(none) %4, ptr noundef %5) local_unnamed_addr #1 {
  %7 = tail call ptr @lean_st_ref_get(ptr noundef %0, ptr noundef %5) #4
  %.val = load i32, ptr %7, align 4, !tbaa !4
  %8 = icmp eq i32 %.val, 1
  %9 = getelementptr inbounds nuw i8, ptr %7, i64 8
  %10 = load ptr, ptr %9, align 8, !tbaa !9
  br i1 %8, label %11, label %31

11:                                               ; preds = %6
  %12 = getelementptr inbounds nuw i8, ptr %10, i64 16
  %13 = load ptr, ptr %12, align 8, !tbaa !9
  %14 = ptrtoint ptr %13 to i64
  %15 = and i64 %14, 1
  %.not46 = icmp eq i64 %15, 0
  br i1 %.not46, label %16, label %lean_inc.exit26

16:                                               ; preds = %11
  %.val.i = load i32, ptr %13, align 4, !tbaa !4
  %17 = icmp sgt i32 %.val.i, 0
  br i1 %17, label %18, label %20, !prof !11

18:                                               ; preds = %16
  %19 = add nuw i32 %.val.i, 1
  store i32 %19, ptr %13, align 4, !tbaa !4
  br label %lean_inc.exit26

20:                                               ; preds = %16
  %.not.i33 = icmp eq i32 %.val.i, 0
  br i1 %.not.i33, label %lean_inc.exit26, label %21

21:                                               ; preds = %20
  tail call void @lean_inc_ref_cold(ptr noundef nonnull %13) #4
  br label %lean_inc.exit26

lean_inc.exit26:                                  ; preds = %21, %20, %18, %11
  %22 = ptrtoint ptr %10 to i64
  %23 = and i64 %22, 1
  %.not47 = icmp eq i64 %23, 0
  br i1 %.not47, label %24, label %lean_dec.exit28

24:                                               ; preds = %lean_inc.exit26
  %25 = load i32, ptr %10, align 4, !tbaa !4
  %26 = icmp sgt i32 %25, 1
  br i1 %26, label %27, label %29, !prof !11

27:                                               ; preds = %24
  %28 = add nsw i32 %25, -1
  store i32 %28, ptr %10, align 4, !tbaa !4
  br label %lean_dec.exit28

29:                                               ; preds = %24
  %.not.i = icmp eq i32 %25, 0
  br i1 %.not.i, label %lean_dec.exit28, label %30

30:                                               ; preds = %29
  tail call void @lean_dec_ref_cold(ptr noundef nonnull %10) #4
  br label %lean_dec.exit28

lean_dec.exit28:                                  ; preds = %30, %29, %27, %lean_inc.exit26
  store ptr %13, ptr %9, align 8, !tbaa !9
  br label %82

31:                                               ; preds = %6
  %32 = getelementptr inbounds nuw i8, ptr %7, i64 16
  %33 = load ptr, ptr %32, align 8, !tbaa !9
  %34 = ptrtoint ptr %33 to i64
  %35 = and i64 %34, 1
  %.not = icmp eq i64 %35, 0
  br i1 %.not, label %36, label %lean_inc.exit25

36:                                               ; preds = %31
  %.val.i34 = load i32, ptr %33, align 4, !tbaa !4
  %37 = icmp sgt i32 %.val.i34, 0
  br i1 %37, label %38, label %40, !prof !11

38:                                               ; preds = %36
  %39 = add nuw i32 %.val.i34, 1
  store i32 %39, ptr %33, align 4, !tbaa !4
  br label %lean_inc.exit25

40:                                               ; preds = %36
  %.not.i35 = icmp eq i32 %.val.i34, 0
  br i1 %.not.i35, label %lean_inc.exit25, label %41

41:                                               ; preds = %40
  tail call void @lean_inc_ref_cold(ptr noundef nonnull %33) #4
  br label %lean_inc.exit25

lean_inc.exit25:                                  ; preds = %41, %40, %38, %31
  %42 = ptrtoint ptr %10 to i64
  %43 = and i64 %42, 1
  %.not43 = icmp eq i64 %43, 0
  br i1 %.not43, label %44, label %lean_inc.exit24

44:                                               ; preds = %lean_inc.exit25
  %.val.i37 = load i32, ptr %10, align 4, !tbaa !4
  %45 = icmp sgt i32 %.val.i37, 0
  br i1 %45, label %46, label %48, !prof !11

46:                                               ; preds = %44
  %47 = add nuw i32 %.val.i37, 1
  store i32 %47, ptr %10, align 4, !tbaa !4
  br label %lean_inc.exit24

48:                                               ; preds = %44
  %.not.i38 = icmp eq i32 %.val.i37, 0
  br i1 %.not.i38, label %lean_inc.exit24, label %49

49:                                               ; preds = %48
  tail call void @lean_inc_ref_cold(ptr noundef nonnull %10) #4
  br label %lean_inc.exit24

lean_inc.exit24:                                  ; preds = %49, %48, %46, %lean_inc.exit25
  %50 = ptrtoint ptr %7 to i64
  %51 = and i64 %50, 1
  %.not44 = icmp eq i64 %51, 0
  br i1 %.not44, label %52, label %lean_dec.exit27

52:                                               ; preds = %lean_inc.exit24
  %53 = load i32, ptr %7, align 4, !tbaa !4
  %54 = icmp sgt i32 %53, 1
  br i1 %54, label %55, label %57, !prof !11

55:                                               ; preds = %52
  %56 = add nsw i32 %53, -1
  store i32 %56, ptr %7, align 4, !tbaa !4
  br label %lean_dec.exit27

57:                                               ; preds = %52
  %.not.i29 = icmp eq i32 %53, 0
  br i1 %.not.i29, label %lean_dec.exit27, label %58

58:                                               ; preds = %57
  tail call void @lean_dec_ref_cold(ptr noundef nonnull %7) #4
  br label %lean_dec.exit27

lean_dec.exit27:                                  ; preds = %58, %57, %55, %lean_inc.exit24
  %59 = getelementptr inbounds nuw i8, ptr %10, i64 16
  %60 = load ptr, ptr %59, align 8, !tbaa !9
  %61 = ptrtoint ptr %60 to i64
  %62 = and i64 %61, 1
  %.not45 = icmp eq i64 %62, 0
  br i1 %.not45, label %63, label %lean_inc.exit

63:                                               ; preds = %lean_dec.exit27
  %.val.i40 = load i32, ptr %60, align 4, !tbaa !4
  %64 = icmp sgt i32 %.val.i40, 0
  br i1 %64, label %65, label %67, !prof !11

65:                                               ; preds = %63
  %66 = add nuw i32 %.val.i40, 1
  store i32 %66, ptr %60, align 4, !tbaa !4
  br label %lean_inc.exit

67:                                               ; preds = %63
  %.not.i41 = icmp eq i32 %.val.i40, 0
  br i1 %.not.i41, label %lean_inc.exit, label %68

68:                                               ; preds = %67
  tail call void @lean_inc_ref_cold(ptr noundef nonnull %60) #4
  br label %lean_inc.exit

lean_inc.exit:                                    ; preds = %68, %67, %65, %lean_dec.exit27
  br i1 %.not43, label %69, label %lean_dec.exit

69:                                               ; preds = %lean_inc.exit
  %70 = load i32, ptr %10, align 4, !tbaa !4
  %71 = icmp sgt i32 %70, 1
  br i1 %71, label %72, label %74, !prof !11

72:                                               ; preds = %69
  %73 = add nsw i32 %70, -1
  store i32 %73, ptr %10, align 4, !tbaa !4
  br label %lean_dec.exit

74:                                               ; preds = %69
  %.not.i31 = icmp eq i32 %70, 0
  br i1 %.not.i31, label %lean_dec.exit, label %75

75:                                               ; preds = %74
  tail call void @lean_dec_ref_cold(ptr noundef nonnull %10) #4
  br label %lean_dec.exit

lean_dec.exit:                                    ; preds = %75, %74, %72, %lean_inc.exit
  tail call void @lean_inc_heartbeat() #4
  %76 = tail call noalias ptr @mi_malloc_small(i64 noundef 24) #4
  %77 = icmp eq ptr %76, null
  br i1 %77, label %78, label %lean_alloc_ctor.exit

78:                                               ; preds = %lean_dec.exit
  tail call void @lean_internal_panic_out_of_memory() #5
  unreachable

lean_alloc_ctor.exit:                             ; preds = %lean_dec.exit
  %79 = getelementptr inbounds nuw i8, ptr %76, i64 4
  store i32 1, ptr %76, align 4, !tbaa !4
  store i32 131096, ptr %79, align 4
  %80 = getelementptr inbounds nuw i8, ptr %76, i64 8
  store ptr %60, ptr %80, align 8, !tbaa !9
  %81 = getelementptr inbounds nuw i8, ptr %76, i64 16
  store ptr %33, ptr %81, align 8, !tbaa !9
  br label %82

82:                                               ; preds = %lean_alloc_ctor.exit, %lean_dec.exit28
  %.0 = phi ptr [ %7, %lean_dec.exit28 ], [ %76, %lean_alloc_ctor.exit ]
  ret ptr %.0
}